target datalayout = "e-m:e-p270:32:32-p271:32:32-p272:64:64-i64:64-i128:128-f80:128-n8:16:32:64-S128"
target triple = "x86_64-pc-linux-gnu"

%struct._zend_executor_globals = type { %struct._zval_struct, %struct._zval_struct, [32 x ptr], ptr, ptr, %struct._zend_array, %struct._zend_array, ptr, i32, i32, ptr, ptr, ptr, ptr, ptr, ptr, i64, ptr, ptr, i32, i32, i64, i32, i32, i32, i8, i8, %struct.zend_atomic_bool_s, %struct.zend_atomic_bool_s, ptr, i64, ptr, ptr, %struct._zend_array, %struct._zend_array, i32, i8, %struct._zval_struct, %struct._zval_struct, %struct._zend_stack, %struct._zend_stack, %struct._zend_stack, ptr, i32, i32, i64, ptr, ptr, ptr, %struct._zend_objects_store, ptr, ptr, ptr, [3 x %struct._zend_op], ptr, i8, i8, i64, i32, i32, ptr, [16 x %struct._HashTableIterator], ptr, %union._zend_function, %struct._zend_op, %struct._zend_array, i64, %struct.zend_get_gc_buffer, ptr, ptr, ptr, i64, i8, i32, ptr, ptr, i64, %struct._zend_call_stack, i64, i64, [6 x ptr] }
%struct.zend_atomic_bool_s = type { i8 }
%struct._zval_struct = type { %union._zend_value, %union.anon, %union.anon.2 }
%union._zend_value = type { i64 }
%union.anon = type { i32 }
%union.anon.2 = type { i32 }
%struct._zend_stack = type { i32, i32, i32, ptr }
%struct._zend_objects_store = type { ptr, i32, i32, i32 }
%struct._HashTableIterator = type { ptr, i32, i32 }
%union._zend_function = type { %struct._zend_op_array }
%struct._zend_op_array = type { i8, [3 x i8], i32, ptr, ptr, ptr, i32, i32, ptr, ptr, ptr, ptr, i32, i32, i32, i32, ptr, ptr, ptr, ptr, ptr, i32, i32, ptr, ptr, ptr, i32, i32, i32, i32, ptr, ptr, [6 x ptr] }
%struct._zend_op = type { ptr, %union._znode_op, %union._znode_op, %union._znode_op, i32, i32, i8, i8, i8, i8 }
%union._znode_op = type { i32 }
%struct._zend_array = type { %struct._zend_refcounted_h, %union.anon.4, i32, %union.anon.6, i32, i32, i32, i32, i64, ptr }
%struct._zend_refcounted_h = type { i32, %union.anon.3 }
%union.anon.3 = type { i32 }
%union.anon.4 = type { i32 }
%union.anon.6 = type { ptr }
%struct.zend_get_gc_buffer = type { ptr, ptr, ptr }
%struct._zend_call_stack = type { ptr, i64 }
%struct._zend_execute_data = type { ptr, ptr, ptr, ptr, %struct._zval_struct, ptr, ptr, ptr, ptr }
%struct._zend_object = type { %struct._zend_refcounted_h, i32, ptr, ptr, ptr, [1 x %struct._zval_struct] }
%struct.anon.0 = type { i8, i8, %union.anon.1 }
%union.anon.1 = type { i16 }
%struct._zend_reference = type { %struct._zend_refcounted_h, %struct._zval_struct, %union.zend_property_info_source_list }
%union.zend_property_info_source_list = type { ptr }
%struct._spl_dual_it_object = type { %struct.anon.8, %struct.anon.9, i32, %union.anon.10, %struct._zend_object }
%struct.anon.8 = type { %struct._zval_struct, ptr, ptr, ptr }
%struct.anon.9 = type { %struct._zval_struct, %struct._zval_struct, i64 }
%union.anon.10 = type { %struct.anon.12 }
%struct.anon.12 = type { i64, ptr, %struct._zval_struct, %struct._zval_struct }
%struct.anon.13 = type { %struct._zval_struct, ptr }

@executor_globals = external global %struct._zend_executor_globals, align 8
@.str = private unnamed_addr constant [75 x i8] c"The object is in an invalid state as the parent constructor was not called\00", align 1

; Function Attrs: nounwind uwtable
define internal ptr @spl_dual_it_from_obj(ptr noundef %0) #0 {
  %2 = alloca ptr, align 8
  store ptr %0, ptr %2, align 8
  %3 = load ptr, ptr %2, align 8
  %4 = getelementptr inbounds i8, ptr %3, i64 -136
  ret ptr %4
}

; Function Attrs: nounwind uwtable
define hidden void @zim_AppendIterator_getArrayIterator(ptr noundef %0, ptr noundef %1) #0 {
  %3 = alloca ptr, align 8
  %4 = alloca ptr, align 8
  %5 = alloca ptr, align 8
  %6 = alloca ptr, align 8
  %7 = alloca ptr, align 8
  %8 = alloca ptr, align 8
  %9 = alloca ptr, align 8
  %10 = alloca ptr, align 8
  %11 = alloca ptr, align 8
  %12 = alloca ptr, align 8
  %13 = alloca ptr, align 8
  %14 = alloca ptr, align 8
  %15 = alloca ptr, align 8
  %16 = alloca i32, align 4
  store ptr %0, ptr %7, align 8
  store ptr %1, ptr %8, align 8
  %17 = load ptr, ptr %7, align 8
  %18 = getelementptr inbounds %struct._zend_execute_data, ptr %17, i32 0, i32 4
  %19 = getelementptr inbounds %struct._zval_struct, ptr %18, i32 0, i32 2
  %20 = load i32, ptr %19, align 4
  %21 = icmp eq i32 %20, 0
  %22 = xor i1 %21, true
  %23 = xor i1 %22, true
  %24 = zext i1 %23 to i32
  %25 = sext i32 %24 to i64
  %26 = icmp ne i64 %25, 0
  br i1 %26, label %27, label %28

27:                                               ; preds = %2
  br label %29

28:                                               ; preds = %2
  call void @zend_wrong_parameters_none_error()
  br label %29

29:                                               ; preds = %28, %27
  %30 = phi i32 [ 0, %27 ], [ -1, %28 ]
  %31 = icmp eq i32 %30, -1
  br i1 %31, label %32, label %37

32:                                               ; preds = %29
  br label %33

33:                                               ; preds = %32
  %34 = load ptr, ptr getelementptr inbounds (%struct._zend_executor_globals, ptr @executor_globals, i32 0, i32 50), align 8
  %35 = icmp ne ptr %34, null
  call void @llvm.assume(i1 %35)
  br label %136

36:                                               ; No predecessors!
  br label %37

37:                                               ; preds = %36, %29
  br label %38

38:                                               ; preds = %37
  %39 = load ptr, ptr %7, align 8
  %40 = getelementptr inbounds %struct._zend_execute_data, ptr %39, i32 0, i32 4
  %41 = getelementptr inbounds %struct._zval_struct, ptr %40, i32 0, i32 0
  %42 = load ptr, ptr %41, align 8
  %43 = call ptr @spl_dual_it_from_obj(ptr noundef %42)
  store ptr %43, ptr %11, align 8
  %44 = load ptr, ptr %11, align 8
  %45 = getelementptr inbounds %struct._spl_dual_it_object, ptr %44, i32 0, i32 2
  %46 = load i32, ptr %45, align 8
  %47 = icmp eq i32 %46, -1
  br i1 %47, label %48, label %53

48:                                               ; preds = %38
  call void (ptr, ptr, ...) @zend_throw_error(ptr noundef null, ptr noundef @.str)
  br label %49

49:                                               ; preds = %48
  %50 = load ptr, ptr getelementptr inbounds (%struct._zend_executor_globals, ptr @executor_globals, i32 0, i32 50), align 8
  %51 = icmp ne ptr %50, null
  call void @llvm.assume(i1 %51)
  br label %136

52:                                               ; No predecessors!
  br label %53

53:                                               ; preds = %52, %38
  %54 = load ptr, ptr %11, align 8
  store ptr %54, ptr %9, align 8
  br label %55

55:                                               ; preds = %53
  %56 = load ptr, ptr %9, align 8
  %57 = getelementptr inbounds %struct._spl_dual_it_object, ptr %56, i32 0, i32 3
  %58 = getelementptr inbounds %struct.anon.13, ptr %57, i32 0, i32 0
  store ptr %58, ptr %10, align 8
  br label %59

59:                                               ; preds = %55
  br label %60

60:                                               ; preds = %59
  %61 = load ptr, ptr %10, align 8
  store ptr %61, ptr %12, align 8
  %62 = load ptr, ptr %12, align 8
  %63 = getelementptr inbounds %struct._zval_struct, ptr %62, i32 0, i32 1
  %64 = load i32, ptr %63, align 8
  %65 = and i32 %64, 65280
  %66 = icmp ne i32 %65, 0
  br i1 %66, label %67, label %116

67:                                               ; preds = %60
  %68 = load ptr, ptr %12, align 8
  %69 = getelementptr inbounds %struct._zval_struct, ptr %68, i32 0, i32 1
  %70 = load i32, ptr %69, align 8
  %71 = and i32 %70, 255
  %72 = icmp eq i32 %71, 10
  %73 = xor i1 %72, true
  %74 = xor i1 %73, true
  %75 = zext i1 %74 to i32
  %76 = sext i32 %75 to i64
  %77 = icmp ne i64 %76, 0
  br i1 %77, label %78, label %102

78:                                               ; preds = %67
  %79 = load ptr, ptr %12, align 8
  %80 = getelementptr inbounds %struct._zval_struct, ptr %79, i32 0, i32 0
  %81 = load ptr, ptr %80, align 8
  %82 = getelementptr inbounds %struct._zend_reference, ptr %81, i32 0, i32 1
  store ptr %82, ptr %12, align 8
  %83 = load ptr, ptr %12, align 8
  %84 = getelementptr inbounds %struct._zval_struct, ptr %83, i32 0, i32 1
  %85 = load i32, ptr %84, align 8
  %86 = and i32 %85, 65280
  %87 = icmp ne i32 %86, 0
  br i1 %87, label %88, label %101

88:                                               ; preds = %78
  %89 = load ptr, ptr %12, align 8
  store ptr %89, ptr %5, align 8
  %90 = load ptr, ptr %5, align 8
  %91 = getelementptr inbounds %struct._zval_struct, ptr %90, i32 0, i32 1
  %92 = getelementptr inbounds %struct.anon.0, ptr %91, i32 0, i32 1
  %93 = load i8, ptr %92, align 1
  %94 = zext i8 %93 to i32
  %95 = icmp ne i32 %94, 0
  call void @llvm.assume(i1 %95)
  %96 = load ptr, ptr %5, align 8
  %97 = load ptr, ptr %96, align 8
  store ptr %97, ptr %4, align 8
  %98 = load ptr, ptr %4, align 8
  %99 = load i32, ptr %98, align 4
  %100 = add i32 %99, 1
  store i32 %100, ptr %98, align 4
  br label %101

101:                                              ; preds = %88, %78
  br label %115

102:                                              ; preds = %67
  %103 = load ptr, ptr %12, align 8
  store ptr %103, ptr %6, align 8
  %104 = load ptr, ptr %6, align 8
  %105 = getelementptr inbounds %struct._zval_struct, ptr %104, i32 0, i32 1
  %106 = getelementptr inbounds %struct.anon.0, ptr %105, i32 0, i32 1
  %107 = load i8, ptr %106, align 1
  %108 = zext i8 %107 to i32
  %109 = icmp ne i32 %108, 0
  call void @llvm.assume(i1 %109)
  %110 = load ptr, ptr %6, align 8
  %111 = load ptr, ptr %110, align 8
  store ptr %111, ptr %3, align 8
  %112 = load ptr, ptr %3, align 8
  %113 = load i32, ptr %112, align 4
  %114 = add i32 %113, 1
  store i32 %114, ptr %112, align 4
  br label %115

115:                                              ; preds = %102, %101
  br label %116

116:                                              ; preds = %115, %60
  br label %117

117:                                              ; preds = %116
  %118 = load ptr, ptr %8, align 8
  store ptr %118, ptr %13, align 8
  %119 = load ptr, ptr %12, align 8
  store ptr %119, ptr %14, align 8
  %120 = load ptr, ptr %14, align 8
  %121 = getelementptr inbounds %struct._zval_struct, ptr %120, i32 0, i32 0
  %122 = load ptr, ptr %121, align 8
  store ptr %122, ptr %15, align 8
  %123 = load ptr, ptr %14, align 8
  %124 = getelementptr inbounds %struct._zval_struct, ptr %123, i32 0, i32 1
  %125 = load i32, ptr %124, align 8
  store i32 %125, ptr %16, align 4
  br label %126

126:                                              ; preds = %117
  %127 = load ptr, ptr %15, align 8
  %128 = load ptr, ptr %13, align 8
  %129 = getelementptr inbounds %struct._zval_struct, ptr %128, i32 0, i32 0
  store ptr %127, ptr %129, align 8
  %130 = load i32, ptr %16, align 4
  %131 = load ptr, ptr %13, align 8
  %132 = getelementptr inbounds %struct._zval_struct, ptr %131, i32 0, i32 1
  store i32 %130, ptr %132, align 8
  br label %133

133:                                              ; preds = %126
  br label %134

134:                                              ; preds = %133
  br label %135

135:                                              ; preds = %134
  br label %136

136:                                              ; preds = %135, %49, %33
  ret void
}