; Function Attrs: nounwind uwtable
define hidden void @zim_AppendIterator_getArrayIterator(ptr nocapture noundef readonly %0, ptr nocapture noundef writeonly %1) #0 {
  %3 = getelementptr inbounds i8, ptr %0, i64 44
  %4 = load i32, ptr %3, align 4
  %.not = icmp eq i32 %4, 0
  br i1 %.not, label %.critedge, label %5

5:                                                ; preds = %2
  tail call void @zend_wrong_parameters_none_error() #10
  %6 = load ptr, ptr getelementptr inbounds (%struct._zend_executor_globals, ptr @executor_globals, i64 0, i32 50), align 8
  %7 = icmp ne ptr %6, null
  tail call void @llvm.assume(i1 %7)
  br label %40

.critedge:                                        ; preds = %2
  %8 = getelementptr inbounds i8, ptr %0, i64 32
  %9 = load ptr, ptr %8, align 8
  %10 = getelementptr inbounds i8, ptr %9, i64 -56
  %11 = load i32, ptr %10, align 8
  %12 = icmp eq i32 %11, -1
  br i1 %12, label %13, label %16

13:                                               ; preds = %.critedge
  tail call void (ptr, ptr, ...) @zend_throw_error(ptr noundef null, ptr noundef nonnull @.str) #10
  %14 = load ptr, ptr getelementptr inbounds (%struct._zend_executor_globals, ptr @executor_globals, i64 0, i32 50), align 8
  %15 = icmp ne ptr %14, null
  tail call void @llvm.assume(i1 %15)
  br label %40

16:                                               ; preds = %.critedge
  %17 = getelementptr inbounds i8, ptr %9, i64 -48
  %18 = getelementptr inbounds i8, ptr %9, i64 -40
  %19 = load i32, ptr %18, align 8
  %20 = and i32 %19, 65280
  %.not25 = icmp eq i32 %20, 0
  br i1 %.not25, label %35, label %21

21:                                               ; preds = %16
  %22 = and i32 %19, 255
  %23 = icmp eq i32 %22, 10
  br i1 %23, label %24, label %.sink.split

24:                                               ; preds = %21
  %25 = load ptr, ptr %17, align 8
  %26 = getelementptr inbounds i8, ptr %25, i64 8
  %27 = getelementptr inbounds i8, ptr %25, i64 16
  %28 = load i32, ptr %27, align 8
  %29 = and i32 %28, 65280
  %.not26 = icmp eq i32 %29, 0
  br i1 %.not26, label %35, label %.sink.split

.sink.split:                                      ; preds = %21, %24
  %.sink = phi i32 [ %28, %24 ], [ %19, %21 ]
  %.sink29 = phi ptr [ %26, %24 ], [ %17, %21 ]
  %30 = and i32 %.sink, 65280
  %31 = icmp ne i32 %30, 0
  tail call void @llvm.assume(i1 %31)
  %32 = load ptr, ptr %.sink29, align 8
  %33 = load i32, ptr %32, align 4
  %34 = add i32 %33, 1
  store i32 %34, ptr %32, align 4
  br label %35

35:                                               ; preds = %.sink.split, %16, %24
  %.0 = phi ptr [ %26, %24 ], [ %17, %16 ], [ %.sink29, %.sink.split ]
  %36 = load ptr, ptr %.0, align 8
  %37 = getelementptr inbounds i8, ptr %.0, i64 8
  %38 = load i32, ptr %37, align 8
  store ptr %36, ptr %1, align 8
  %39 = getelementptr inbounds i8, ptr %1, i64 8
  store i32 %38, ptr %39, align 8
  br label %40

40:                                               ; preds = %35, %13, %5
  ret void
}